target datalayout = "e-m:e-p270:32:32-p271:32:32-p272:64:64-i64:64-i128:128-f80:128-n8:16:32:64-S128"
target triple = "x86_64-unknown-linux-gnu"

%"struct.icu_75::CollationTailoring" = type { %"class.icu_75::SharedObject", ptr, ptr, %"class.icu_75::UnicodeString", %"class.icu_75::Locale", [4 x i8], ptr, ptr, ptr, ptr, ptr, ptr, ptr, %"struct.icu_75::UInitOnce" }
%"class.icu_75::SharedObject" = type { %"class.icu_75::UObject", i32, %"struct.std::atomic", ptr }
%"class.icu_75::UObject" = type { ptr }
%"struct.std::atomic" = type { %"struct.std::__atomic_base" }
%"struct.std::__atomic_base" = type { i32 }
%"class.icu_75::UnicodeString" = type { %"class.icu_75::Replaceable", %"union.icu_75::UnicodeString::StackBufferOrFields" }
%"class.icu_75::Replaceable" = type { %"class.icu_75::UObject" }
%"union.icu_75::UnicodeString::StackBufferOrFields" = type { %struct.anon.0, [32 x i8] }
%struct.anon.0 = type { i16, i32, i32, ptr }
%"class.icu_75::Locale" = type <{ %"class.icu_75::UObject", [12 x i8], [6 x i8], [4 x i8], [2 x i8], i32, [4 x i8], ptr, [157 x i8], [3 x i8], ptr, i8, [7 x i8] }>
%"struct.icu_75::UInitOnce" = type { %"struct.std::atomic", i32 }

@_ZTVN6icu_7518CollationTailoringE = unnamed_addr constant { [5 x ptr] } { [5 x ptr] [ptr null, ptr @_ZTIN6icu_7518CollationTailoringE, ptr @_ZN6icu_7518CollationTailoringD1Ev, ptr @_ZN6icu_7518CollationTailoringD0Ev, ptr @_ZNK6icu_757UObject17getDynamicClassIDEv] }, align 8

; Function Attrs: mustprogress nounwind uwtable
define linkonce_odr noundef i32 @_ZStanSt12memory_orderSt23__memory_order_modifier(i32 noundef %__m, i32 noundef %__mod) #1 comdat {
entry:
  %__m.addr = alloca i32, align 4
  %__mod.addr = alloca i32, align 4
  store i32 %__m, ptr %__m.addr, align 4
  store i32 %__mod, ptr %__mod.addr, align 4
  %0 = load i32, ptr %__m.addr, align 4
  %1 = load i32, ptr %__mod.addr, align 4
  %and = and i32 %0, %1
  ret i32 %and
}

; Function Attrs: mustprogress nounwind uwtable
define linkonce_odr noundef i32 @_ZNSt13__atomic_baseIiEaSEi(ptr noundef nonnull align 4 dereferenceable(4) %this, i32 noundef %__i) #1 comdat align 2 personality ptr @__gxx_personality_v0 {
entry:
  %this.addr.i = alloca ptr, align 8
  %__i.addr.i = alloca i32, align 4
  %__m.addr.i = alloca i32, align 4
  %__b.i = alloca i32, align 4
  %.atomictmp.i = alloca i32, align 4
  %this.addr = alloca ptr, align 8
  %__i.addr = alloca i32, align 4
  store ptr %this, ptr %this.addr, align 8
  store i32 %__i, ptr %__i.addr, align 4
  %this1 = load ptr, ptr %this.addr, align 8
  %0 = load i32, ptr %__i.addr, align 4
  store ptr %this1, ptr %this.addr.i, align 8
  store i32 %0, ptr %__i.addr.i, align 4
  store i32 5, ptr %__m.addr.i, align 4
  %this1.i = load ptr, ptr %this.addr.i, align 8
  %1 = load i32, ptr %__m.addr.i, align 4
  %call.i = invoke noundef i32 @_ZStanSt12memory_orderSt23__memory_order_modifier(i32 noundef %1, i32 noundef 65535)
          to label %invoke.cont.i unwind label %terminate.lpad.i

invoke.cont.i:                                    ; preds = %entry
  store i32 %call.i, ptr %__b.i, align 4
  %2 = load i32, ptr %__m.addr.i, align 4
  %3 = load i32, ptr %__i.addr.i, align 4
  store i32 %3, ptr %.atomictmp.i, align 4
  switch i32 %2, label %monotonic.i [
    i32 3, label %release.i
    i32 5, label %seqcst.i
  ]

monotonic.i:                                      ; preds = %invoke.cont.i
  %4 = load i32, ptr %.atomictmp.i, align 4
  store atomic i32 %4, ptr %this1.i monotonic, align 4
  br label %_ZNSt13__atomic_baseIiE5storeEiSt12memory_order.exit

release.i:                                        ; preds = %invoke.cont.i
  %5 = load i32, ptr %.atomictmp.i, align 4
  store atomic i32 %5, ptr %this1.i release, align 4
  br label %_ZNSt13__atomic_baseIiE5storeEiSt12memory_order.exit

seqcst.i:                                         ; preds = %invoke.cont.i
  %6 = load i32, ptr %.atomictmp.i, align 4
  store atomic i32 %6, ptr %this1.i seq_cst, align 4
  br label %_ZNSt13__atomic_baseIiE5storeEiSt12memory_order.exit

terminate.lpad.i:                                 ; preds = %entry
  %7 = landingpad { ptr, i32 }
          catch ptr null
  %8 = extractvalue { ptr, i32 } %7, 0
  call void @__clang_call_terminate(ptr %8) #6
  unreachable

_ZNSt13__atomic_baseIiE5storeEiSt12memory_order.exit: ; preds = %seqcst.i, %release.i, %monotonic.i
  %9 = load i32, ptr %__i.addr, align 4
  ret i32 %9
}

; Function Attrs: mustprogress nounwind uwtable
define linkonce_odr void @_ZN6icu_759UInitOnce5resetEv(ptr noundef nonnull align 4 dereferenceable(8) %this) #1 comdat align 2 {
entry:
  %this.addr = alloca ptr, align 8
  store ptr %this, ptr %this.addr, align 8
  %this1 = load ptr, ptr %this.addr, align 8
  %fState = getelementptr inbounds %"struct.icu_75::UInitOnce", ptr %this1, i32 0, i32 0
  %call = call noundef i32 @_ZNSt13__atomic_baseIiEaSEi(ptr noundef nonnull align 4 dereferenceable(4) %fState, i32 noundef 0) #5
  ret void
}

; Function Attrs: mustprogress uwtable
define linkonce_odr void @_ZN6icu_7512SharedObject8clearPtrINS_17CollationSettingsEEEvRPKT_(ptr noundef nonnull align 8 dereferenceable(8) %ptr) #0 comdat align 2 {
entry:
  %ptr.addr = alloca ptr, align 8
  store ptr %ptr, ptr %ptr.addr, align 8
  %0 = load ptr, ptr %ptr.addr, align 8
  %1 = load ptr, ptr %0, align 8
  %cmp = icmp ne ptr %1, null
  br i1 %cmp, label %if.then, label %if.end

if.then:                                          ; preds = %entry
  %2 = load ptr, ptr %ptr.addr, align 8
  %3 = load ptr, ptr %2, align 8
  call void @_ZNK6icu_7512SharedObject9removeRefEv(ptr noundef nonnull align 8 dereferenceable(24) %3)
  %4 = load ptr, ptr %ptr.addr, align 8
  store ptr null, ptr %4, align 8
  br label %if.end

if.end:                                           ; preds = %if.then, %entry
  ret void
}

; Function Attrs: mustprogress nounwind uwtable
define void @_ZN6icu_7518CollationTailoringD2Ev(ptr noundef nonnull align 8 dereferenceable(400) %this) unnamed_addr #1 align 2 personality ptr @__gxx_personality_v0 {
entry:
  %this.addr = alloca ptr, align 8
  store ptr %this, ptr %this.addr, align 8
  %this1 = load ptr, ptr %this.addr, align 8
  store ptr getelementptr inbounds ({ [5 x ptr] }, ptr @_ZTVN6icu_7518CollationTailoringE, i32 0, i32 0, i32 2), ptr %this1, align 8
  %settings = getelementptr inbounds %"struct.icu_75::CollationTailoring", ptr %this1, i32 0, i32 2
  invoke void @_ZN6icu_7512SharedObject8clearPtrINS_17CollationSettingsEEEvRPKT_(ptr noundef nonnull align 8 dereferenceable(8) %settings)
          to label %invoke.cont unwind label %terminate.lpad

invoke.cont:                                      ; preds = %entry
  %ownedData = getelementptr inbounds %"struct.icu_75::CollationTailoring", ptr %this1, i32 0, i32 6
  %0 = load ptr, ptr %ownedData, align 8
  %isnull = icmp eq ptr %0, null
  br i1 %isnull, label %delete.end, label %delete.notnull

delete.notnull:                                   ; preds = %invoke.cont
  call void @_ZN6icu_757UMemorydlEPv(ptr noundef %0) #5
  br label %delete.end

delete.end:                                       ; preds = %delete.notnull, %invoke.cont
  %builder = getelementptr inbounds %"struct.icu_75::CollationTailoring", ptr %this1, i32 0, i32 7
  %1 = load ptr, ptr %builder, align 8
  %isnull2 = icmp eq ptr %1, null
  br i1 %isnull2, label %delete.end4, label %delete.notnull3

delete.notnull3:                                  ; preds = %delete.end
  %vtable = load ptr, ptr %1, align 8
  %vfn = getelementptr inbounds ptr, ptr %vtable, i64 1
  %2 = load ptr, ptr %vfn, align 8
  call void %2(ptr noundef nonnull align 8 dereferenceable(8) %1) #5
  br label %delete.end4

delete.end4:                                      ; preds = %delete.notnull3, %delete.end
  %memory = getelementptr inbounds %"struct.icu_75::CollationTailoring", ptr %this1, i32 0, i32 8
  %3 = load ptr, ptr %memory, align 8
  invoke void @udata_close_75(ptr noundef %3)
          to label %invoke.cont5 unwind label %terminate.lpad

invoke.cont5:                                     ; preds = %delete.end4
  %bundle = getelementptr inbounds %"struct.icu_75::CollationTailoring", ptr %this1, i32 0, i32 9
  %4 = load ptr, ptr %bundle, align 8
  invoke void @ures_close_75(ptr noundef %4)
          to label %invoke.cont6 unwind label %terminate.lpad

invoke.cont6:                                     ; preds = %invoke.cont5
  %trie = getelementptr inbounds %"struct.icu_75::CollationTailoring", ptr %this1, i32 0, i32 10
  %5 = load ptr, ptr %trie, align 8
  invoke void @utrie2_close_75(ptr noundef %5)
          to label %invoke.cont7 unwind label %terminate.lpad

invoke.cont7:                                     ; preds = %invoke.cont6
  %unsafeBackwardSet = getelementptr inbounds %"struct.icu_75::CollationTailoring", ptr %this1, i32 0, i32 11
  %6 = load ptr, ptr %unsafeBackwardSet, align 8
  %isnull8 = icmp eq ptr %6, null
  br i1 %isnull8, label %delete.end10, label %delete.notnull9

delete.notnull9:                                  ; preds = %invoke.cont7
  call void @_ZN6icu_7510UnicodeSetD1Ev(ptr noundef nonnull align 8 dereferenceable(200) %6) #5
  call void @_ZN6icu_757UMemorydlEPv(ptr noundef %6) #5
  br label %delete.end10

delete.end10:                                     ; preds = %delete.notnull9, %invoke.cont7
  %maxExpansions = getelementptr inbounds %"struct.icu_75::CollationTailoring", ptr %this1, i32 0, i32 12
  %7 = load ptr, ptr %maxExpansions, align 8
  invoke void @uhash_close_75(ptr noundef %7)
          to label %invoke.cont11 unwind label %terminate.lpad

invoke.cont11:                                    ; preds = %delete.end10
  %maxExpansionsInitOnce = getelementptr inbounds %"struct.icu_75::CollationTailoring", ptr %this1, i32 0, i32 13
  invoke void @_ZN6icu_759UInitOnce5resetEv(ptr noundef nonnull align 4 dereferenceable(8) %maxExpansionsInitOnce)
          to label %invoke.cont12 unwind label %terminate.lpad

invoke.cont12:                                    ; preds = %invoke.cont11
  %actualLocale = getelementptr inbounds %"struct.icu_75::CollationTailoring", ptr %this1, i32 0, i32 4
  call void @_ZN6icu_756LocaleD1Ev(ptr noundef nonnull align 8 dereferenceable(217) %actualLocale) #5
  %rules = getelementptr inbounds %"struct.icu_75::CollationTailoring", ptr %this1, i32 0, i32 3
  call void @_ZN6icu_7513UnicodeStringD1Ev(ptr noundef nonnull align 8 dereferenceable(64) %rules) #5
  call void @_ZN6icu_7512SharedObjectD2Ev(ptr noundef nonnull align 8 dereferenceable(24) %this1) #5
  ret void

terminate.lpad:                                   ; preds = %invoke.cont11, %delete.end10, %invoke.cont6, %invoke.cont5, %delete.end4, %entry
  %8 = landingpad { ptr, i32 }
          catch ptr null
  %9 = extractvalue { ptr, i32 } %8, 0
  call void @__clang_call_terminate(ptr %9) #6
  unreachable
}