; Function Attrs: mustprogress nounwind uwtable
define void @_ZN6icu_7518CollationTailoringD2Ev(ptr noundef nonnull align 8 dereferenceable(400) %this) unnamed_addr #3 align 2 personality ptr @__gxx_personality_v0 {
entry:
  store ptr getelementptr inbounds ({ [5 x ptr] }, ptr @_ZTVN6icu_7518CollationTailoringE, i64 0, i32 0, i64 2), ptr %this, align 8
  %settings = getelementptr inbounds i8, ptr %this, i64 32
  %0 = load ptr, ptr %settings, align 8
  %cmp.not.i = icmp eq ptr %0, null
  br i1 %cmp.not.i, label %invoke.cont, label %if.then.i

if.then.i:                                        ; preds = %entry
  invoke void @_ZNK6icu_7512SharedObject9removeRefEv(ptr noundef nonnull align 8 dereferenceable(24) %0)
          to label %.noexc unwind label %terminate.lpad

.noexc:                                           ; preds = %if.then.i
  store ptr null, ptr %settings, align 8
  br label %invoke.cont

invoke.cont:                                      ; preds = %.noexc, %entry
  %ownedData = getelementptr inbounds i8, ptr %this, i64 336
  %1 = load ptr, ptr %ownedData, align 8
  %isnull = icmp eq ptr %1, null
  br i1 %isnull, label %delete.end, label %delete.notnull

delete.notnull:                                   ; preds = %invoke.cont
  tail call void @_ZN6icu_757UMemorydlEPv(ptr noundef nonnull %1) #9
  br label %delete.end

delete.end:                                       ; preds = %delete.notnull, %invoke.cont
  %builder = getelementptr inbounds i8, ptr %this, i64 344
  %2 = load ptr, ptr %builder, align 8
  %isnull2 = icmp eq ptr %2, null
  br i1 %isnull2, label %delete.end4, label %delete.notnull3

delete.notnull3:                                  ; preds = %delete.end
  %vtable = load ptr, ptr %2, align 8
  %vfn = getelementptr inbounds i8, ptr %vtable, i64 8
  %3 = load ptr, ptr %vfn, align 8
  tail call void %3(ptr noundef nonnull align 8 dereferenceable(8) %2) #9
  br label %delete.end4

delete.end4:                                      ; preds = %delete.notnull3, %delete.end
  %memory = getelementptr inbounds i8, ptr %this, i64 352
  %4 = load ptr, ptr %memory, align 8
  invoke void @udata_close_75(ptr noundef %4)
          to label %invoke.cont5 unwind label %terminate.lpad

invoke.cont5:                                     ; preds = %delete.end4
  %bundle = getelementptr inbounds i8, ptr %this, i64 360
  %5 = load ptr, ptr %bundle, align 8
  invoke void @ures_close_75(ptr noundef %5)
          to label %invoke.cont6 unwind label %terminate.lpad

invoke.cont6:                                     ; preds = %invoke.cont5
  %trie = getelementptr inbounds i8, ptr %this, i64 368
  %6 = load ptr, ptr %trie, align 8
  invoke void @utrie2_close_75(ptr noundef %6)
          to label %invoke.cont7 unwind label %terminate.lpad

invoke.cont7:                                     ; preds = %invoke.cont6
  %unsafeBackwardSet = getelementptr inbounds i8, ptr %this, i64 376
  %7 = load ptr, ptr %unsafeBackwardSet, align 8
  %isnull8 = icmp eq ptr %7, null
  br i1 %isnull8, label %delete.end10, label %delete.notnull9

delete.notnull9:                                  ; preds = %invoke.cont7
  tail call void @_ZN6icu_7510UnicodeSetD1Ev(ptr noundef nonnull align 8 dereferenceable(200) %7) #9
  tail call void @_ZN6icu_757UMemorydlEPv(ptr noundef nonnull %7) #9
  br label %delete.end10

delete.end10:                                     ; preds = %delete.notnull9, %invoke.cont7
  %maxExpansions = getelementptr inbounds i8, ptr %this, i64 384
  %8 = load ptr, ptr %maxExpansions, align 8
  invoke void @uhash_close_75(ptr noundef %8)
          to label %invoke.cont11 unwind label %terminate.lpad

invoke.cont11:                                    ; preds = %delete.end10
  %maxExpansionsInitOnce = getelementptr inbounds i8, ptr %this, i64 392
  store atomic i32 0, ptr %maxExpansionsInitOnce seq_cst, align 8
  %actualLocale = getelementptr inbounds i8, ptr %this, i64 104
  tail call void @_ZN6icu_756LocaleD1Ev(ptr noundef nonnull align 8 dereferenceable(217) %actualLocale) #9
  %rules = getelementptr inbounds i8, ptr %this, i64 40
  tail call void @_ZN6icu_7513UnicodeStringD1Ev(ptr noundef nonnull align 8 dereferenceable(64) %rules) #9
  tail call void @_ZN6icu_7512SharedObjectD2Ev(ptr noundef nonnull align 8 dereferenceable(24) %this) #9
  ret void

terminate.lpad:                                   ; preds = %if.then.i, %delete.end10, %invoke.cont6, %invoke.cont5, %delete.end4
  %9 = landingpad { ptr, i32 }
          catch ptr null
  %10 = extractvalue { ptr, i32 } %9, 0
  tail call void @__clang_call_terminate(ptr %10) #10
  unreachable
}